; Function Attrs: mustprogress uwtable
define dso_local void @_ZN11V3GraphEdge12unlinkDeleteEv(ptr noundef nonnull align 8 dereferenceable(72) %0) #4 align 2 {
  %2 = getelementptr inbounds nuw i8, ptr %0, i64 40
  %3 = load ptr, ptr %2, align 8, !tbaa !27
  %4 = getelementptr inbounds nuw i8, ptr %3, i64 24
  %5 = getelementptr inbounds nuw i8, ptr %0, i64 8
  %6 = load ptr, ptr %5, align 8, !tbaa !31
  %.not.i = icmp eq ptr %6, null
  %.phi.trans.insert.i = getelementptr inbounds nuw i8, ptr %0, i64 16
  %.pre.i = load ptr, ptr %.phi.trans.insert.i, align 8, !tbaa !32
  br i1 %.not.i, label %._crit_edge.i, label %7

7:                                                ; preds = %1
  %8 = getelementptr inbounds nuw i8, ptr %6, i64 16
  store ptr %.pre.i, ptr %8, align 8, !tbaa !32
  br label %._crit_edge.i

._crit_edge.i:                                    ; preds = %7, %1
  %.not15.i = icmp eq ptr %.pre.i, null
  br i1 %.not15.i, label %11, label %9

9:                                                ; preds = %._crit_edge.i
  %10 = getelementptr inbounds nuw i8, ptr %.pre.i, i64 8
  store ptr %6, ptr %10, align 8, !tbaa !31
  br label %11

11:                                               ; preds = %9, %._crit_edge.i
  %12 = load ptr, ptr %4, align 8, !tbaa !26
  %13 = icmp eq ptr %12, %0
  br i1 %13, label %14, label %16

14:                                               ; preds = %11
  %15 = load ptr, ptr %5, align 8, !tbaa !31
  store ptr %15, ptr %4, align 8, !tbaa !26
  br label %16

16:                                               ; preds = %14, %11
  %17 = getelementptr inbounds nuw i8, ptr %3, i64 32
  %18 = load ptr, ptr %17, align 8, !tbaa !33
  %19 = icmp eq ptr %18, %0
  br i1 %19, label %20, label %_ZN6V3ListI11V3GraphEdgeXadL_ZNS0_6oLinksEvEES0_E6unlinkEPKS0_.exit

20:                                               ; preds = %16
  store ptr %.pre.i, ptr %17, align 8, !tbaa !33
  br label %_ZN6V3ListI11V3GraphEdgeXadL_ZNS0_6oLinksEvEES0_E6unlinkEPKS0_.exit

_ZN6V3ListI11V3GraphEdgeXadL_ZNS0_6oLinksEvEES0_E6unlinkEPKS0_.exit: ; preds = %16, %20
  tail call void @llvm.memset.p0.i64(ptr noundef nonnull align 8 dereferenceable(16) %5, i8 0, i64 16, i1 false)
  %21 = getelementptr inbounds nuw i8, ptr %0, i64 48
  %22 = load ptr, ptr %21, align 8, !tbaa !34
  %23 = getelementptr inbounds nuw i8, ptr %22, i64 40
  %24 = getelementptr inbounds nuw i8, ptr %0, i64 24
  %25 = load ptr, ptr %24, align 8, !tbaa !31
  %.not.i1 = icmp eq ptr %25, null
  %.phi.trans.insert.i2 = getelementptr inbounds nuw i8, ptr %0, i64 32
  %.pre.i3 = load ptr, ptr %.phi.trans.insert.i2, align 8, !tbaa !32
  br i1 %.not.i1, label %._crit_edge.i4, label %26

26:                                               ; preds = %_ZN6V3ListI11V3GraphEdgeXadL_ZNS0_6oLinksEvEES0_E6unlinkEPKS0_.exit
  %27 = getelementptr inbounds nuw i8, ptr %25, i64 32
  store ptr %.pre.i3, ptr %27, align 8, !tbaa !32
  br label %._crit_edge.i4

._crit_edge.i4:                                   ; preds = %26, %_ZN6V3ListI11V3GraphEdgeXadL_ZNS0_6oLinksEvEES0_E6unlinkEPKS0_.exit
  %.not15.i5 = icmp eq ptr %.pre.i3, null
  br i1 %.not15.i5, label %30, label %28

28:                                               ; preds = %._crit_edge.i4
  %29 = getelementptr inbounds nuw i8, ptr %.pre.i3, i64 24
  store ptr %25, ptr %29, align 8, !tbaa !31
  br label %30

30:                                               ; preds = %28, %._crit_edge.i4
  %31 = load ptr, ptr %23, align 8, !tbaa !35
  %32 = icmp eq ptr %31, %0
  br i1 %32, label %33, label %35

33:                                               ; preds = %30
  %34 = load ptr, ptr %24, align 8, !tbaa !31
  store ptr %34, ptr %23, align 8, !tbaa !35
  br label %35

35:                                               ; preds = %33, %30
  %36 = getelementptr inbounds nuw i8, ptr %22, i64 48
  %37 = load ptr, ptr %36, align 8, !tbaa !36
  %38 = icmp eq ptr %37, %0
  br i1 %38, label %39, label %_ZN6V3ListI11V3GraphEdgeXadL_ZNS0_6iLinksEvEES0_E6unlinkEPKS0_.exit

39:                                               ; preds = %35
  store ptr %.pre.i3, ptr %36, align 8, !tbaa !36
  br label %_ZN6V3ListI11V3GraphEdgeXadL_ZNS0_6iLinksEvEES0_E6unlinkEPKS0_.exit

_ZN6V3ListI11V3GraphEdgeXadL_ZNS0_6iLinksEvEES0_E6unlinkEPKS0_.exit: ; preds = %35, %39
  tail call void @llvm.memset.p0.i64(ptr noundef nonnull align 8 dereferenceable(16) %24, i8 0, i64 16, i1 false)
  %40 = load ptr, ptr %0, align 8, !tbaa !4
  %41 = getelementptr inbounds nuw i8, ptr %40, i64 24
  %42 = load ptr, ptr %41, align 8
  tail call void %42(ptr noundef nonnull align 8 dereferenceable(72) %0) #27
  ret void
}